target datalayout = "e-m:e-p270:32:32-p271:32:32-p272:64:64-i64:64-i128:128-f80:128-n8:16:32:64-S128"
target triple = "x86_64-pc-linux-gnu"

@g_ascii_table = external constant ptr, align 8

; Function Attrs: null_pointer_is_valid sspstrong uwtable
define hidden i32 @recent_set_arg(ptr noundef %0) #0 {
  %2 = alloca i32, align 4
  %3 = alloca ptr, align 8
  %4 = alloca ptr, align 8
  %5 = alloca ptr, align 8
  %6 = alloca i32, align 4
  %7 = alloca i32, align 4
  store ptr %0, ptr %3, align 8
  call void @llvm.lifetime.start.p0(i64 8, ptr %4) #13
  call void @llvm.lifetime.start.p0(i64 8, ptr %5) #13
  call void @llvm.lifetime.start.p0(i64 4, ptr %6) #13
  %8 = load ptr, ptr %3, align 8
  %9 = call ptr @strchr(ptr noundef %8, i32 noundef 58) #16
  store ptr %9, ptr %5, align 8
  %10 = load ptr, ptr %5, align 8
  %11 = icmp eq ptr %10, null
  br i1 %11, label %12, label %13

12:                                               ; preds = %1
  store i32 1, ptr %2, align 4
  store i32 1, ptr %7, align 4
  br label %43

13:                                               ; preds = %1
  %14 = load ptr, ptr %5, align 8
  store ptr %14, ptr %4, align 8
  %15 = load ptr, ptr %4, align 8
  %16 = getelementptr i8, ptr %15, i32 1
  store ptr %16, ptr %4, align 8
  store i8 0, ptr %15, align 1
  br label %17

17:                                               ; preds = %27, %13
  %18 = load ptr, ptr @g_ascii_table, align 8
  %19 = load ptr, ptr %4, align 8
  %20 = load i8, ptr %19, align 1
  %21 = zext i8 %20 to i64
  %22 = getelementptr i16, ptr %18, i64 %21
  %23 = load i16, ptr %22, align 2
  %24 = zext i16 %23 to i32
  %25 = and i32 %24, 256
  %26 = icmp ne i32 %25, 0
  br i1 %26, label %27, label %30

27:                                               ; preds = %17
  %28 = load ptr, ptr %4, align 8
  %29 = getelementptr i8, ptr %28, i32 1
  store ptr %29, ptr %4, align 8
  br label %17, !llvm.loop !13

30:                                               ; preds = %17
  %31 = load ptr, ptr %4, align 8
  %32 = load i8, ptr %31, align 1
  %33 = sext i8 %32 to i32
  %34 = icmp eq i32 %33, 0
  br i1 %34, label %35, label %37

35:                                               ; preds = %30
  %36 = load ptr, ptr %5, align 8
  store i8 58, ptr %36, align 1
  store i32 1, ptr %2, align 4
  store i32 1, ptr %7, align 4
  br label %43

37:                                               ; preds = %30
  %38 = load ptr, ptr %3, align 8
  %39 = load ptr, ptr %4, align 8
  %40 = call i32 @read_set_recent_pair_static(ptr noundef %38, ptr noundef %39, ptr noundef null, i1 noundef zeroext true)
  store i32 %40, ptr %6, align 4
  %41 = load ptr, ptr %5, align 8
  store i8 58, ptr %41, align 1
  %42 = load i32, ptr %6, align 4
  store i32 %42, ptr %2, align 4
  store i32 1, ptr %7, align 4
  br label %43

43:                                               ; preds = %37, %35, %12
  call void @llvm.lifetime.end.p0(i64 4, ptr %6) #13
  call void @llvm.lifetime.end.p0(i64 8, ptr %5) #13
  call void @llvm.lifetime.end.p0(i64 8, ptr %4) #13
  %44 = load i32, ptr %2, align 4
  ret i32 %44
}