; Function Attrs: null_pointer_is_valid sspstrong uwtable
define hidden range(i32 0, 3) i32 @recent_set_arg(ptr noundef %0) local_unnamed_addr #0 {
  %2 = tail call ptr @strchr(ptr noundef %0, i32 noundef 58) #13
  %3 = icmp eq ptr %2, null
  br i1 %3, label %16, label %4

4:                                                ; preds = %1
  store i8 0, ptr %2, align 1
  %5 = load ptr, ptr @g_ascii_table, align 8
  br label %6

6:                                                ; preds = %6, %4
  %.pn = phi ptr [ %2, %4 ], [ %.012, %6 ]
  %.012 = getelementptr i8, ptr %.pn, i64 1
  %7 = load i8, ptr %.012, align 1
  %8 = zext i8 %7 to i64
  %9 = getelementptr i16, ptr %5, i64 %8
  %10 = load i16, ptr %9, align 2
  %11 = and i16 %10, 256
  %.not = icmp eq i16 %11, 0
  br i1 %.not, label %12, label %6, !llvm.loop !14

12:                                               ; preds = %6
  %13 = icmp eq i8 %7, 0
  br i1 %13, label %.sink.split, label %14

14:                                               ; preds = %12
  %15 = tail call i32 @read_set_recent_pair_static(ptr noundef %0, ptr noundef %.012, ptr poison, i1 zeroext poison)
  br label %.sink.split

.sink.split:                                      ; preds = %12, %14
  %.0.ph = phi i32 [ %15, %14 ], [ 1, %12 ]
  store i8 58, ptr %2, align 1
  br label %16

16:                                               ; preds = %.sink.split, %1
  %.0 = phi i32 [ 1, %1 ], [ %.0.ph, %.sink.split ]
  ret i32 %.0
}